target datalayout = "e-m:e-p270:32:32-p271:32:32-p272:64:64-i64:64-i128:128-f80:128-n8:16:32:64-S128"
target triple = "x86_64-pc-linux-gnu"

%union.pthread_mutex_t = type { %struct.__pthread_mutex_s }
%struct.__pthread_mutex_s = type { i32, i32, i32, i32, i32, i16, i16, %struct.__pthread_internal_list }
%struct.__pthread_internal_list = type { ptr, ptr }

@.str.3 = private unnamed_addr constant [29 x i8] c"%s: pthread_mutex_lock(): %m\00", align 1
@.str.7 = private unnamed_addr constant [31 x i8] c"%s: pthread_mutex_unlock(): %m\00", align 1
@update_nodes_mutex = internal global %union.pthread_mutex_t zeroinitializer, align 8
@rpc_stat_counts = internal global ptr null, align 8
@rpc_stat_types = internal global ptr null, align 8
@rpc_host_list = internal global ptr null, align 8
@rpc_type_list = internal global ptr null, align 8
@retry_mutex = internal global %union.pthread_mutex_t zeroinitializer, align 8
@retry_list = internal global ptr null, align 8
@defer_mutex = internal global %union.pthread_mutex_t zeroinitializer, align 8
@defer_list = internal global ptr null, align 8
@__func__.agent_purge = private unnamed_addr constant [12 x i8] c"agent_purge\00", align 1
@mail_mutex = internal global %union.pthread_mutex_t zeroinitializer, align 8
@mail_list = internal global ptr null, align 8
@update_node_list = internal global ptr null, align 8

; Function Attrs: nounwind uwtable
define dso_local void @agent_purge() #0 {
  %1 = alloca i32, align 4
  %2 = alloca i32, align 4
  %3 = alloca i32, align 4
  %4 = alloca i32, align 4
  %5 = alloca i32, align 4
  %6 = alloca i32, align 4
  %7 = alloca i32, align 4
  %8 = alloca i32, align 4
  %9 = alloca i32, align 4
  call void @llvm.lifetime.start.p0(i64 4, ptr %1) #10
  br label %10

10:                                               ; preds = %0
  call void @llvm.lifetime.start.p0(i64 4, ptr %2) #10
  %11 = call i32 @pthread_mutex_lock(ptr noundef @retry_mutex) #10
  store i32 %11, ptr %2, align 4
  %12 = load i32, ptr %2, align 4
  %13 = icmp ne i32 %12, 0
  br i1 %13, label %14, label %17

14:                                               ; preds = %10
  %15 = load i32, ptr %2, align 4
  %16 = call ptr @__errno_location() #11
  store i32 %15, ptr %16, align 4
  call void (ptr, ...) @fatal_abort(ptr noundef @.str.3, ptr noundef @__func__.agent_purge) #12
  unreachable

17:                                               ; preds = %10
  call void @llvm.lifetime.end.p0(i64 4, ptr %2) #10
  br label %18

18:                                               ; preds = %17
  br label %19

19:                                               ; preds = %18
  br label %20

20:                                               ; preds = %19
  %21 = load ptr, ptr @retry_list, align 8
  %22 = icmp ne ptr %21, null
  br i1 %22, label %23, label %25

23:                                               ; preds = %20
  %24 = load ptr, ptr @retry_list, align 8
  call void @list_destroy(ptr noundef %24)
  br label %25

25:                                               ; preds = %23, %20
  store ptr null, ptr @retry_list, align 8
  br label %26

26:                                               ; preds = %25
  br label %27

27:                                               ; preds = %26
  br label %28

28:                                               ; preds = %27
  call void @llvm.lifetime.start.p0(i64 4, ptr %3) #10
  %29 = call i32 @pthread_mutex_unlock(ptr noundef @retry_mutex) #10
  store i32 %29, ptr %3, align 4
  %30 = load i32, ptr %3, align 4
  %31 = icmp ne i32 %30, 0
  br i1 %31, label %32, label %35

32:                                               ; preds = %28
  %33 = load i32, ptr %3, align 4
  %34 = call ptr @__errno_location() #11
  store i32 %33, ptr %34, align 4
  call void (ptr, ...) @fatal_abort(ptr noundef @.str.7, ptr noundef @__func__.agent_purge) #12
  unreachable

35:                                               ; preds = %28
  call void @llvm.lifetime.end.p0(i64 4, ptr %3) #10
  br label %36

36:                                               ; preds = %35
  br label %37

37:                                               ; preds = %36
  br label %38

38:                                               ; preds = %37
  call void @llvm.lifetime.start.p0(i64 4, ptr %4) #10
  %39 = call i32 @pthread_mutex_lock(ptr noundef @defer_mutex) #10
  store i32 %39, ptr %4, align 4
  %40 = load i32, ptr %4, align 4
  %41 = icmp ne i32 %40, 0
  br i1 %41, label %42, label %45

42:                                               ; preds = %38
  %43 = load i32, ptr %4, align 4
  %44 = call ptr @__errno_location() #11
  store i32 %43, ptr %44, align 4
  call void (ptr, ...) @fatal_abort(ptr noundef @.str.3, ptr noundef @__func__.agent_purge) #12
  unreachable

45:                                               ; preds = %38
  call void @llvm.lifetime.end.p0(i64 4, ptr %4) #10
  br label %46

46:                                               ; preds = %45
  br label %47

47:                                               ; preds = %46
  br label %48

48:                                               ; preds = %47
  %49 = load ptr, ptr @defer_list, align 8
  %50 = icmp ne ptr %49, null
  br i1 %50, label %51, label %53

51:                                               ; preds = %48
  %52 = load ptr, ptr @defer_list, align 8
  call void @list_destroy(ptr noundef %52)
  br label %53

53:                                               ; preds = %51, %48
  store ptr null, ptr @defer_list, align 8
  br label %54

54:                                               ; preds = %53
  br label %55

55:                                               ; preds = %54
  br label %56

56:                                               ; preds = %55
  call void @llvm.lifetime.start.p0(i64 4, ptr %5) #10
  %57 = call i32 @pthread_mutex_unlock(ptr noundef @defer_mutex) #10
  store i32 %57, ptr %5, align 4
  %58 = load i32, ptr %5, align 4
  %59 = icmp ne i32 %58, 0
  br i1 %59, label %60, label %63

60:                                               ; preds = %56
  %61 = load i32, ptr %5, align 4
  %62 = call ptr @__errno_location() #11
  store i32 %61, ptr %62, align 4
  call void (ptr, ...) @fatal_abort(ptr noundef @.str.7, ptr noundef @__func__.agent_purge) #12
  unreachable

63:                                               ; preds = %56
  call void @llvm.lifetime.end.p0(i64 4, ptr %5) #10
  br label %64

64:                                               ; preds = %63
  br label %65

65:                                               ; preds = %64
  br label %66

66:                                               ; preds = %65
  call void @llvm.lifetime.start.p0(i64 4, ptr %6) #10
  %67 = call i32 @pthread_mutex_lock(ptr noundef @mail_mutex) #10
  store i32 %67, ptr %6, align 4
  %68 = load i32, ptr %6, align 4
  %69 = icmp ne i32 %68, 0
  br i1 %69, label %70, label %73

70:                                               ; preds = %66
  %71 = load i32, ptr %6, align 4
  %72 = call ptr @__errno_location() #11
  store i32 %71, ptr %72, align 4
  call void (ptr, ...) @fatal_abort(ptr noundef @.str.3, ptr noundef @__func__.agent_purge) #12
  unreachable

73:                                               ; preds = %66
  call void @llvm.lifetime.end.p0(i64 4, ptr %6) #10
  br label %74

74:                                               ; preds = %73
  br label %75

75:                                               ; preds = %74
  br label %76

76:                                               ; preds = %75
  %77 = load ptr, ptr @mail_list, align 8
  %78 = icmp ne ptr %77, null
  br i1 %78, label %79, label %81

79:                                               ; preds = %76
  %80 = load ptr, ptr @mail_list, align 8
  call void @list_destroy(ptr noundef %80)
  br label %81

81:                                               ; preds = %79, %76
  store ptr null, ptr @mail_list, align 8
  br label %82

82:                                               ; preds = %81
  br label %83

83:                                               ; preds = %82
  br label %84

84:                                               ; preds = %83
  call void @llvm.lifetime.start.p0(i64 4, ptr %7) #10
  %85 = call i32 @pthread_mutex_unlock(ptr noundef @mail_mutex) #10
  store i32 %85, ptr %7, align 4
  %86 = load i32, ptr %7, align 4
  %87 = icmp ne i32 %86, 0
  br i1 %87, label %88, label %91

88:                                               ; preds = %84
  %89 = load i32, ptr %7, align 4
  %90 = call ptr @__errno_location() #11
  store i32 %89, ptr %90, align 4
  call void (ptr, ...) @fatal_abort(ptr noundef @.str.7, ptr noundef @__func__.agent_purge) #12
  unreachable

91:                                               ; preds = %84
  call void @llvm.lifetime.end.p0(i64 4, ptr %7) #10
  br label %92

92:                                               ; preds = %91
  br label %93

93:                                               ; preds = %92
  br label %94

94:                                               ; preds = %93
  call void @llvm.lifetime.start.p0(i64 4, ptr %8) #10
  %95 = call i32 @pthread_mutex_lock(ptr noundef @update_nodes_mutex) #10
  store i32 %95, ptr %8, align 4
  %96 = load i32, ptr %8, align 4
  %97 = icmp ne i32 %96, 0
  br i1 %97, label %98, label %101

98:                                               ; preds = %94
  %99 = load i32, ptr %8, align 4
  %100 = call ptr @__errno_location() #11
  store i32 %99, ptr %100, align 4
  call void (ptr, ...) @fatal_abort(ptr noundef @.str.3, ptr noundef @__func__.agent_purge) #12
  unreachable

101:                                              ; preds = %94
  call void @llvm.lifetime.end.p0(i64 4, ptr %8) #10
  br label %102

102:                                              ; preds = %101
  br label %103

103:                                              ; preds = %102
  br label %104

104:                                              ; preds = %103
  %105 = load ptr, ptr @update_node_list, align 8
  %106 = icmp ne ptr %105, null
  br i1 %106, label %107, label %109

107:                                              ; preds = %104
  %108 = load ptr, ptr @update_node_list, align 8
  call void @list_destroy(ptr noundef %108)
  br label %109

109:                                              ; preds = %107, %104
  store ptr null, ptr @update_node_list, align 8
  br label %110

110:                                              ; preds = %109
  br label %111

111:                                              ; preds = %110
  br label %112

112:                                              ; preds = %111
  call void @llvm.lifetime.start.p0(i64 4, ptr %9) #10
  %113 = call i32 @pthread_mutex_unlock(ptr noundef @update_nodes_mutex) #10
  store i32 %113, ptr %9, align 4
  %114 = load i32, ptr %9, align 4
  %115 = icmp ne i32 %114, 0
  br i1 %115, label %116, label %119

116:                                              ; preds = %112
  %117 = load i32, ptr %9, align 4
  %118 = call ptr @__errno_location() #11
  store i32 %117, ptr %118, align 4
  call void (ptr, ...) @fatal_abort(ptr noundef @.str.7, ptr noundef @__func__.agent_purge) #12
  unreachable

119:                                              ; preds = %112
  call void @llvm.lifetime.end.p0(i64 4, ptr %9) #10
  br label %120

120:                                              ; preds = %119
  br label %121

121:                                              ; preds = %120
  call void @slurm_xfree(ptr noundef @rpc_stat_counts)
  call void @slurm_xfree(ptr noundef @rpc_stat_types)
  call void @slurm_xfree(ptr noundef @rpc_type_list)
  %122 = load ptr, ptr @rpc_host_list, align 8
  %123 = icmp ne ptr %122, null
  br i1 %123, label %124, label %137

124:                                              ; preds = %121
  store i32 0, ptr %1, align 4
  br label %125

125:                                              ; preds = %133, %124
  %126 = load i32, ptr %1, align 4
  %127 = icmp slt i32 %126, 25
  br i1 %127, label %128, label %136

128:                                              ; preds = %125
  %129 = load ptr, ptr @rpc_host_list, align 8
  %130 = load i32, ptr %1, align 4
  %131 = sext i32 %130 to i64
  %132 = getelementptr inbounds ptr, ptr %129, i64 %131
  call void @slurm_xfree(ptr noundef %132)
  br label %133

133:                                              ; preds = %128
  %134 = load i32, ptr %1, align 4
  %135 = add nsw i32 %134, 1
  store i32 %135, ptr %1, align 4
  br label %125, !llvm.loop !31

136:                                              ; preds = %125
  call void @slurm_xfree(ptr noundef @rpc_host_list)
  br label %137

137:                                              ; preds = %136, %121
  call void @llvm.lifetime.end.p0(i64 4, ptr %1) #10
  ret void
}