; Function Attrs: nounwind uwtable
define dso_local void @agent_purge() local_unnamed_addr #0 {
  %1 = tail call i32 @pthread_mutex_lock(ptr noundef nonnull @retry_mutex) #14
  %.not = icmp eq i32 %1, 0
  br i1 %.not, label %4, label %2

2:                                                ; preds = %0
  %3 = tail call ptr @__errno_location() #15
  store i32 %1, ptr %3, align 4
  tail call void (ptr, ...) @fatal_abort(ptr noundef nonnull @.str.3, ptr noundef nonnull @__func__.agent_purge) #16
  unreachable

4:                                                ; preds = %0
  %5 = load ptr, ptr @retry_list, align 8
  %.not31 = icmp eq ptr %5, null
  br i1 %.not31, label %7, label %6

6:                                                ; preds = %4
  tail call void @list_destroy(ptr noundef nonnull %5) #14
  br label %7

7:                                                ; preds = %6, %4
  store ptr null, ptr @retry_list, align 8
  %8 = tail call i32 @pthread_mutex_unlock(ptr noundef nonnull @retry_mutex) #14
  %.not32 = icmp eq i32 %8, 0
  br i1 %.not32, label %11, label %9

9:                                                ; preds = %7
  %10 = tail call ptr @__errno_location() #15
  store i32 %8, ptr %10, align 4
  tail call void (ptr, ...) @fatal_abort(ptr noundef nonnull @.str.7, ptr noundef nonnull @__func__.agent_purge) #16
  unreachable

11:                                               ; preds = %7
  %12 = tail call i32 @pthread_mutex_lock(ptr noundef nonnull @defer_mutex) #14
  %.not33 = icmp eq i32 %12, 0
  br i1 %.not33, label %15, label %13

13:                                               ; preds = %11
  %14 = tail call ptr @__errno_location() #15
  store i32 %12, ptr %14, align 4
  tail call void (ptr, ...) @fatal_abort(ptr noundef nonnull @.str.3, ptr noundef nonnull @__func__.agent_purge) #16
  unreachable

15:                                               ; preds = %11
  %16 = load ptr, ptr @defer_list, align 8
  %.not34 = icmp eq ptr %16, null
  br i1 %.not34, label %18, label %17

17:                                               ; preds = %15
  tail call void @list_destroy(ptr noundef nonnull %16) #14
  br label %18

18:                                               ; preds = %17, %15
  store ptr null, ptr @defer_list, align 8
  %19 = tail call i32 @pthread_mutex_unlock(ptr noundef nonnull @defer_mutex) #14
  %.not35 = icmp eq i32 %19, 0
  br i1 %.not35, label %22, label %20

20:                                               ; preds = %18
  %21 = tail call ptr @__errno_location() #15
  store i32 %19, ptr %21, align 4
  tail call void (ptr, ...) @fatal_abort(ptr noundef nonnull @.str.7, ptr noundef nonnull @__func__.agent_purge) #16
  unreachable

22:                                               ; preds = %18
  %23 = tail call i32 @pthread_mutex_lock(ptr noundef nonnull @mail_mutex) #14
  %.not36 = icmp eq i32 %23, 0
  br i1 %.not36, label %26, label %24

24:                                               ; preds = %22
  %25 = tail call ptr @__errno_location() #15
  store i32 %23, ptr %25, align 4
  tail call void (ptr, ...) @fatal_abort(ptr noundef nonnull @.str.3, ptr noundef nonnull @__func__.agent_purge) #16
  unreachable

26:                                               ; preds = %22
  %27 = load ptr, ptr @mail_list, align 8
  %.not37 = icmp eq ptr %27, null
  br i1 %.not37, label %29, label %28

28:                                               ; preds = %26
  tail call void @list_destroy(ptr noundef nonnull %27) #14
  br label %29

29:                                               ; preds = %28, %26
  store ptr null, ptr @mail_list, align 8
  %30 = tail call i32 @pthread_mutex_unlock(ptr noundef nonnull @mail_mutex) #14
  %.not38 = icmp eq i32 %30, 0
  br i1 %.not38, label %33, label %31

31:                                               ; preds = %29
  %32 = tail call ptr @__errno_location() #15
  store i32 %30, ptr %32, align 4
  tail call void (ptr, ...) @fatal_abort(ptr noundef nonnull @.str.7, ptr noundef nonnull @__func__.agent_purge) #16
  unreachable

33:                                               ; preds = %29
  %34 = tail call i32 @pthread_mutex_lock(ptr noundef nonnull @update_nodes_mutex) #14
  %.not39 = icmp eq i32 %34, 0
  br i1 %.not39, label %37, label %35

35:                                               ; preds = %33
  %36 = tail call ptr @__errno_location() #15
  store i32 %34, ptr %36, align 4
  tail call void (ptr, ...) @fatal_abort(ptr noundef nonnull @.str.3, ptr noundef nonnull @__func__.agent_purge) #16
  unreachable

37:                                               ; preds = %33
  %38 = load ptr, ptr @update_node_list, align 8
  %.not40 = icmp eq ptr %38, null
  br i1 %.not40, label %40, label %39

39:                                               ; preds = %37
  tail call void @list_destroy(ptr noundef nonnull %38) #14
  br label %40

40:                                               ; preds = %39, %37
  store ptr null, ptr @update_node_list, align 8
  %41 = tail call i32 @pthread_mutex_unlock(ptr noundef nonnull @update_nodes_mutex) #14
  %.not41 = icmp eq i32 %41, 0
  br i1 %.not41, label %44, label %42

42:                                               ; preds = %40
  %43 = tail call ptr @__errno_location() #15
  store i32 %41, ptr %43, align 4
  tail call void (ptr, ...) @fatal_abort(ptr noundef nonnull @.str.7, ptr noundef nonnull @__func__.agent_purge) #16
  unreachable

44:                                               ; preds = %40
  tail call void @slurm_xfree(ptr noundef nonnull @rpc_stat_counts) #14
  tail call void @slurm_xfree(ptr noundef nonnull @rpc_stat_types) #14
  tail call void @slurm_xfree(ptr noundef nonnull @rpc_type_list) #14
  %45 = load ptr, ptr @rpc_host_list, align 8
  %.not42 = icmp eq ptr %45, null
  br i1 %.not42, label %49, label %.preheader

.preheader:                                       ; preds = %44, %.preheader
  %indvars.iv = phi i64 [ %indvars.iv.next, %.preheader ], [ 0, %44 ]
  %46 = load ptr, ptr @rpc_host_list, align 8
  %47 = getelementptr inbounds nuw ptr, ptr %46, i64 %indvars.iv
  tail call void @slurm_xfree(ptr noundef %47) #14
  %indvars.iv.next = add nuw nsw i64 %indvars.iv, 1
  %exitcond.not = icmp eq i64 %indvars.iv.next, 25
  br i1 %exitcond.not, label %48, label %.preheader, !llvm.loop !38

48:                                               ; preds = %.preheader
  tail call void @slurm_xfree(ptr noundef nonnull @rpc_host_list) #14
  br label %49

49:                                               ; preds = %48, %44
  ret void
}